; Function Attrs: mustprogress nofree norecurse nosync nounwind memory(read, argmem: readwrite, inaccessiblemem: none) uwtable
define void @_ZN6icu_7513UnicodeString13releaseBufferEi(ptr noundef nonnull align 8 dereferenceable(64) %this, i32 noundef %newLength) local_unnamed_addr #9 align 2 {
entry:
  %fUnion = getelementptr inbounds i8, ptr %this, i64 8
  %0 = load i16, ptr %fUnion, align 8
  %1 = and i16 %0, 16
  %tobool = icmp ne i16 %1, 0
  %cmp = icmp sgt i32 %newLength, -2
  %or.cond = and i1 %cmp, %tobool
  br i1 %or.cond, label %if.then, label %if.end17

if.then:                                          ; preds = %entry
  %2 = and i16 %0, 2
  %tobool.not.i = icmp eq i16 %2, 0
  %fCapacity.i = getelementptr inbounds i8, ptr %this, i64 16
  %3 = load i32, ptr %fCapacity.i, align 8
  %cond.i = select i1 %tobool.not.i, i32 %3, i32 27
  %cmp2 = icmp eq i32 %newLength, -1
  br i1 %cmp2, label %if.then3, label %if.else

if.then3:                                         ; preds = %if.then
  %fBuffer.i = getelementptr inbounds i8, ptr %this, i64 10
  %fArray.i = getelementptr inbounds i8, ptr %this, i64 24
  %4 = load ptr, ptr %fArray.i, align 8
  %cond.i13 = select i1 %tobool.not.i, ptr %4, ptr %fBuffer.i
  %idx.ext = sext i32 %cond.i to i64
  %add.ptr = getelementptr inbounds i16, ptr %cond.i13, i64 %idx.ext
  %cmp514 = icmp sgt i32 %cond.i, 0
  br i1 %cmp514, label %land.rhs, label %while.end

land.rhs:                                         ; preds = %if.then3, %while.body
  %p.015 = phi ptr [ %incdec.ptr, %while.body ], [ %cond.i13, %if.then3 ]
  %5 = load i16, ptr %p.015, align 2
  %cmp7.not = icmp eq i16 %5, 0
  br i1 %cmp7.not, label %while.end, label %while.body

while.body:                                       ; preds = %land.rhs
  %incdec.ptr = getelementptr inbounds i8, ptr %p.015, i64 2
  %cmp5 = icmp ult ptr %incdec.ptr, %add.ptr
  br i1 %cmp5, label %land.rhs, label %while.end, !llvm.loop !9

while.end:                                        ; preds = %land.rhs, %while.body, %if.then3
  %p.0.lcssa = phi ptr [ %cond.i13, %if.then3 ], [ %incdec.ptr, %while.body ], [ %p.015, %land.rhs ]
  %sub.ptr.lhs.cast = ptrtoint ptr %p.0.lcssa to i64
  %sub.ptr.rhs.cast = ptrtoint ptr %cond.i13 to i64
  %sub.ptr.sub = sub i64 %sub.ptr.lhs.cast, %sub.ptr.rhs.cast
  %sub.ptr.div = lshr exact i64 %sub.ptr.sub, 1
  %conv8 = trunc i64 %sub.ptr.div to i32
  br label %if.end11

if.else:                                          ; preds = %if.then
  %spec.select = tail call i32 @llvm.smin.i32(i32 %cond.i, i32 %newLength)
  br label %if.end11

if.end11:                                         ; preds = %if.else, %while.end
  %newLength.addr.0 = phi i32 [ %conv8, %while.end ], [ %spec.select, %if.else ]
  %cmp.i = icmp slt i32 %newLength.addr.0, 1024
  br i1 %cmp.i, label %if.then.i, label %if.else.i

if.then.i:                                        ; preds = %if.end11
  %6 = and i16 %0, 31
  %len.tr.i.i = trunc i32 %newLength.addr.0 to i16
  %7 = shl i16 %len.tr.i.i, 5
  %conv2.i.i = or disjoint i16 %7, %6
  br label %_ZN6icu_7513UnicodeString9setLengthEi.exit

if.else.i:                                        ; preds = %if.end11
  %or.i = or i16 %0, -32
  %fLength.i = getelementptr inbounds i8, ptr %this, i64 12
  store i32 %newLength.addr.0, ptr %fLength.i, align 4
  br label %_ZN6icu_7513UnicodeString9setLengthEi.exit

_ZN6icu_7513UnicodeString9setLengthEi.exit:       ; preds = %if.then.i, %if.else.i
  %or.i.sink = phi i16 [ %conv2.i.i, %if.then.i ], [ %or.i, %if.else.i ]
  %8 = and i16 %or.i.sink, -17
  store i16 %8, ptr %fUnion, align 8
  br label %if.end17

if.end17:                                         ; preds = %_ZN6icu_7513UnicodeString9setLengthEi.exit, %entry
  ret void
}